target datalayout = "e-m:e-p270:32:32-p271:32:32-p272:64:64-i64:64-i128:128-f80:128-n8:16:32:64-S128"
target triple = "x86_64-pc-linux-gnu"

%struct.ARKodeMemRec = type { ptr, double, ptr, i32, i32, double, double, ptr, i32, double, ptr, i32, i32, ptr, ptr, i32, ptr, ptr, i32, ptr, ptr, ptr, ptr, ptr, ptr, ptr, ptr, ptr, ptr, ptr, ptr, ptr, ptr, ptr, i32, ptr, ptr, i32, ptr, i32, ptr, ptr, ptr, ptr, ptr, ptr, ptr, ptr, ptr, ptr, ptr, ptr, ptr, ptr, ptr, ptr, ptr, ptr, ptr, ptr, ptr, ptr, ptr, ptr, ptr, ptr, i32, ptr, ptr, ptr, ptr, ptr, ptr, ptr, i32, ptr, ptr, ptr, i32, ptr, ptr, ptr, ptr, ptr, ptr, ptr, i32, i32, i32, i32, double, double, double, double, double, double, double, double, double, double, i32, ptr, i64, i32, i32, i32, i32, i64, i64, i32, i64, i64, i64, i64, i64, i64, i64, double, double, double, double, double, i32, double, double, i32, i32, i32, i32, i32, i32, i32, i32, ptr, i32, ptr, ptr, ptr, ptr, i32, i32, i32 }
%struct._generic_N_Vector = type { ptr, ptr, ptr }
%struct._generic_N_Vector_Ops = type { ptr, ptr, ptr, ptr, ptr, ptr, ptr, ptr, ptr, ptr, ptr, ptr, ptr, ptr, ptr, ptr, ptr, ptr, ptr, ptr, ptr, ptr, ptr, ptr, ptr, ptr, ptr, ptr, ptr, ptr, ptr, ptr, ptr, ptr, ptr, ptr, ptr, ptr, ptr, ptr, ptr, ptr, ptr, ptr, ptr, ptr, ptr, ptr, ptr, ptr, ptr, ptr, ptr, ptr, ptr, ptr }

@.str = private unnamed_addr constant [115 x i8] c"generated/home/dtcxzyw/WorkSpace/Projects/compilers/llvm-opt-benchmark/bench/sundials/sundials/src/arkode/arkode.c\00", align 1
@.str.1 = private unnamed_addr constant [27 x i8] c"arkode_mem = NULL illegal.\00", align 1
@.str.2 = private unnamed_addr constant [35 x i8] c"Attempt to call before ARKodeInit.\00", align 1
@.str.10 = private unnamed_addr constant [37 x i8] c"Missing N_VMin routine from N_Vector\00", align 1
@.str.11 = private unnamed_addr constant [33 x i8] c"Allocation of arkode_mem failed.\00", align 1
@.str.12 = private unnamed_addr constant [65 x i8] c"time-stepping module does not support non-identity mass matrices\00", align 1
@.str.13 = private unnamed_addr constant [45 x i8] c"rabstol has negative component(s) (illegal).\00", align 1
@__func__.ARKodeResVtolerance = private unnamed_addr constant [20 x i8] c"ARKodeResVtolerance\00", align 1
@.str.14 = private unnamed_addr constant [24 x i8] c"rabstol = NULL illegal.\00", align 1

; Function Attrs: nounwind uwtable
define i32 @ARKodeResVtolerance(ptr noundef %0, ptr noundef %1) #0 {
  %3 = alloca i32, align 4
  %4 = alloca ptr, align 8
  %5 = alloca ptr, align 8
  %6 = alloca double, align 8
  %7 = alloca ptr, align 8
  %8 = alloca i32, align 4
  store ptr %0, ptr %4, align 8, !tbaa !3
  store ptr %1, ptr %5, align 8, !tbaa !7
  call void @llvm.lifetime.start.p0(i64 8, ptr %6) #10
  call void @llvm.lifetime.start.p0(i64 8, ptr %7) #10
  %9 = load ptr, ptr %4, align 8, !tbaa !3
  %10 = icmp eq ptr %9, null
  br i1 %10, label %11, label %12

11:                                               ; preds = %2
  call void (ptr, i32, i32, ptr, ptr, ptr, ...) @arkProcessError(ptr noundef null, i32 noundef -21, i32 noundef 486, ptr noundef @__func__.ARKodeResVtolerance, ptr noundef @.str, ptr noundef @.str.1)
  store i32 -21, ptr %3, align 4
  store i32 1, ptr %8, align 4
  br label %107

12:                                               ; preds = %2
  %13 = load ptr, ptr %4, align 8, !tbaa !3
  store ptr %13, ptr %7, align 8, !tbaa !11
  %14 = load ptr, ptr %7, align 8, !tbaa !11
  %15 = getelementptr inbounds nuw %struct.ARKodeMemRec, ptr %14, i32 0, i32 66
  %16 = load i32, ptr %15, align 8, !tbaa !94
  %17 = icmp ne i32 %16, 0
  br i1 %17, label %20, label %18

18:                                               ; preds = %12
  %19 = load ptr, ptr %7, align 8, !tbaa !11
  call void (ptr, i32, i32, ptr, ptr, ptr, ...) @arkProcessError(ptr noundef %19, i32 noundef -48, i32 noundef 495, ptr noundef @__func__.ARKodeResVtolerance, ptr noundef @.str, ptr noundef @.str.12)
  store i32 -48, ptr %3, align 4
  store i32 1, ptr %8, align 4
  br label %107

20:                                               ; preds = %12
  %21 = load ptr, ptr %7, align 8, !tbaa !11
  %22 = getelementptr inbounds nuw %struct.ARKodeMemRec, ptr %21, i32 0, i32 127
  %23 = load i32, ptr %22, align 8, !tbaa !13
  %24 = icmp eq i32 %23, 0
  br i1 %24, label %25, label %27

25:                                               ; preds = %20
  %26 = load ptr, ptr %7, align 8, !tbaa !11
  call void (ptr, i32, i32, ptr, ptr, ptr, ...) @arkProcessError(ptr noundef %26, i32 noundef -23, i32 noundef 503, ptr noundef @__func__.ARKodeResVtolerance, ptr noundef @.str, ptr noundef @.str.2)
  store i32 -23, ptr %3, align 4
  store i32 1, ptr %8, align 4
  br label %107

27:                                               ; preds = %20
  %28 = load ptr, ptr %5, align 8, !tbaa !7
  %29 = icmp eq ptr %28, null
  br i1 %29, label %30, label %32

30:                                               ; preds = %27
  %31 = load ptr, ptr %7, align 8, !tbaa !11
  call void (ptr, i32, i32, ptr, ptr, ptr, ...) @arkProcessError(ptr noundef %31, i32 noundef -23, i32 noundef 509, ptr noundef @__func__.ARKodeResVtolerance, ptr noundef @.str, ptr noundef @.str.14)
  store i32 -23, ptr %3, align 4
  store i32 1, ptr %8, align 4
  br label %107

32:                                               ; preds = %27
  %33 = load ptr, ptr %5, align 8, !tbaa !7
  %34 = getelementptr inbounds nuw %struct._generic_N_Vector, ptr %33, i32 0, i32 1
  %35 = load ptr, ptr %34, align 8, !tbaa !31
  %36 = getelementptr inbounds nuw %struct._generic_N_Vector_Ops, ptr %35, i32 0, i32 23
  %37 = load ptr, ptr %36, align 8, !tbaa !86
  %38 = icmp eq ptr %37, null
  br i1 %38, label %39, label %41

39:                                               ; preds = %32
  %40 = load ptr, ptr %7, align 8, !tbaa !11
  call void (ptr, i32, i32, ptr, ptr, ptr, ...) @arkProcessError(ptr noundef %40, i32 noundef -22, i32 noundef 515, ptr noundef @__func__.ARKodeResVtolerance, ptr noundef @.str, ptr noundef @.str.10)
  store i32 -22, ptr %3, align 4
  store i32 1, ptr %8, align 4
  br label %107

41:                                               ; preds = %32
  %42 = load ptr, ptr %5, align 8, !tbaa !7
  %43 = call double @N_VMin(ptr noundef %42)
  store double %43, ptr %6, align 8, !tbaa !9
  %44 = load double, ptr %6, align 8, !tbaa !9
  %45 = fcmp olt double %44, 0.000000e+00
  br i1 %45, label %46, label %48

46:                                               ; preds = %41
  %47 = load ptr, ptr %7, align 8, !tbaa !11
  call void (ptr, i32, i32, ptr, ptr, ptr, ...) @arkProcessError(ptr noundef %47, i32 noundef -22, i32 noundef 522, ptr noundef @__func__.ARKodeResVtolerance, ptr noundef @.str, ptr noundef @.str.13)
  store i32 -22, ptr %3, align 4
  store i32 1, ptr %8, align 4
  br label %107

48:                                               ; preds = %41
  %49 = load double, ptr %6, align 8, !tbaa !9
  %50 = fcmp oeq double %49, 0.000000e+00
  %51 = zext i1 %50 to i32
  %52 = load ptr, ptr %7, align 8, !tbaa !11
  %53 = getelementptr inbounds nuw %struct.ARKodeMemRec, ptr %52, i32 0, i32 11
  store i32 %51, ptr %53, align 8, !tbaa !95
  %54 = load ptr, ptr %7, align 8, !tbaa !11
  %55 = getelementptr inbounds nuw %struct.ARKodeMemRec, ptr %54, i32 0, i32 74
  %56 = load i32, ptr %55, align 8, !tbaa !55
  %57 = icmp ne i32 %56, 0
  br i1 %57, label %58, label %74

58:                                               ; preds = %48
  %59 = load ptr, ptr %7, align 8, !tbaa !11
  %60 = getelementptr inbounds nuw %struct.ARKodeMemRec, ptr %59, i32 0, i32 73
  store ptr null, ptr %60, align 8, !tbaa !57
  %61 = load ptr, ptr %7, align 8, !tbaa !11
  %62 = load ptr, ptr %7, align 8, !tbaa !11
  %63 = getelementptr inbounds nuw %struct.ARKodeMemRec, ptr %62, i32 0, i32 72
  %64 = load ptr, ptr %63, align 8, !tbaa !56
  %65 = load ptr, ptr %7, align 8, !tbaa !11
  %66 = getelementptr inbounds nuw %struct.ARKodeMemRec, ptr %65, i32 0, i32 73
  %67 = call i32 @arkAllocVec(ptr noundef %61, ptr noundef %64, ptr noundef %66)
  %68 = icmp ne i32 %67, 0
  br i1 %68, label %71, label %69

69:                                               ; preds = %58
  %70 = load ptr, ptr %7, align 8, !tbaa !11
  call void (ptr, i32, i32, ptr, ptr, ptr, ...) @arkProcessError(ptr noundef %70, i32 noundef -20, i32 noundef 536, ptr noundef @__func__.ARKodeResVtolerance, ptr noundef @.str, ptr noundef @.str.11)
  store i32 -22, ptr %3, align 4
  store i32 1, ptr %8, align 4
  br label %107

71:                                               ; preds = %58
  %72 = load ptr, ptr %7, align 8, !tbaa !11
  %73 = getelementptr inbounds nuw %struct.ARKodeMemRec, ptr %72, i32 0, i32 74
  store i32 0, ptr %73, align 8, !tbaa !55
  br label %74

74:                                               ; preds = %71, %48
  %75 = load ptr, ptr %7, align 8, !tbaa !11
  %76 = getelementptr inbounds nuw %struct.ARKodeMemRec, ptr %75, i32 0, i32 126
  %77 = load i32, ptr %76, align 4, !tbaa !101
  %78 = icmp ne i32 %77, 0
  br i1 %78, label %93, label %79

79:                                               ; preds = %74
  %80 = load ptr, ptr %7, align 8, !tbaa !11
  %81 = load ptr, ptr %7, align 8, !tbaa !11
  %82 = getelementptr inbounds nuw %struct.ARKodeMemRec, ptr %81, i32 0, i32 73
  %83 = load ptr, ptr %82, align 8, !tbaa !57
  %84 = load ptr, ptr %7, align 8, !tbaa !11
  %85 = getelementptr inbounds nuw %struct.ARKodeMemRec, ptr %84, i32 0, i32 10
  %86 = call i32 @arkAllocVec(ptr noundef %80, ptr noundef %83, ptr noundef %85)
  %87 = icmp ne i32 %86, 0
  br i1 %87, label %90, label %88

88:                                               ; preds = %79
  %89 = load ptr, ptr %7, align 8, !tbaa !11
  call void (ptr, i32, i32, ptr, ptr, ptr, ...) @arkProcessError(ptr noundef %89, i32 noundef -20, i32 noundef 548, ptr noundef @__func__.ARKodeResVtolerance, ptr noundef @.str, ptr noundef @.str.11)
  store i32 -22, ptr %3, align 4
  store i32 1, ptr %8, align 4
  br label %107

90:                                               ; preds = %79
  %91 = load ptr, ptr %7, align 8, !tbaa !11
  %92 = getelementptr inbounds nuw %struct.ARKodeMemRec, ptr %91, i32 0, i32 126
  store i32 1, ptr %92, align 4, !tbaa !101
  br label %93

93:                                               ; preds = %90, %74
  %94 = load ptr, ptr %5, align 8, !tbaa !7
  %95 = load ptr, ptr %7, align 8, !tbaa !11
  %96 = getelementptr inbounds nuw %struct.ARKodeMemRec, ptr %95, i32 0, i32 10
  %97 = load ptr, ptr %96, align 8, !tbaa !102
  call void @N_VScale(double noundef 1.000000e+00, ptr noundef %94, ptr noundef %97)
  %98 = load ptr, ptr %7, align 8, !tbaa !11
  %99 = getelementptr inbounds nuw %struct.ARKodeMemRec, ptr %98, i32 0, i32 4
  store i32 1, ptr %99, align 4, !tbaa !97
  %100 = load ptr, ptr %7, align 8, !tbaa !11
  %101 = getelementptr inbounds nuw %struct.ARKodeMemRec, ptr %100, i32 0, i32 12
  store i32 0, ptr %101, align 4, !tbaa !82
  %102 = load ptr, ptr %7, align 8, !tbaa !11
  %103 = getelementptr inbounds nuw %struct.ARKodeMemRec, ptr %102, i32 0, i32 16
  store ptr @arkRwtSet, ptr %103, align 8, !tbaa !98
  %104 = load ptr, ptr %7, align 8, !tbaa !11
  %105 = load ptr, ptr %7, align 8, !tbaa !11
  %106 = getelementptr inbounds nuw %struct.ARKodeMemRec, ptr %105, i32 0, i32 17
  store ptr %104, ptr %106, align 8, !tbaa !99
  store i32 0, ptr %3, align 4
  store i32 1, ptr %8, align 4
  br label %107

107:                                              ; preds = %93, %88, %69, %46, %39, %30, %25, %18, %11
  call void @llvm.lifetime.end.p0(i64 8, ptr %7) #10
  call void @llvm.lifetime.end.p0(i64 8, ptr %6) #10
  %108 = load i32, ptr %3, align 4
  ret i32 %108
}