; Function Attrs: nounwind uwtable
define range(i32 -48, 1) i32 @ARKodeResVtolerance(ptr noundef %0, ptr noundef %1) local_unnamed_addr #0 {
  %3 = icmp eq ptr %0, null
  br i1 %3, label %4, label %5

4:                                                ; preds = %2
  tail call void (ptr, i32, i32, ptr, ptr, ptr, ...) @arkProcessError(ptr noundef null, i32 noundef -21, i32 noundef 486, ptr noundef nonnull @__func__.ARKodeResVtolerance, ptr noundef nonnull @.str, ptr noundef nonnull @.str.1)
  br label %69

5:                                                ; preds = %2
  %6 = getelementptr inbounds nuw i8, ptr %0, i64 512
  %7 = load i32, ptr %6, align 8, !tbaa !96
  %.not = icmp eq i32 %7, 0
  br i1 %.not, label %8, label %9

8:                                                ; preds = %5
  tail call void (ptr, i32, i32, ptr, ptr, ptr, ...) @arkProcessError(ptr noundef nonnull %0, i32 noundef -48, i32 noundef 495, ptr noundef nonnull @__func__.ARKodeResVtolerance, ptr noundef nonnull @.str, ptr noundef nonnull @.str.12)
  br label %69

9:                                                ; preds = %5
  %10 = getelementptr inbounds nuw i8, ptr %0, i64 960
  %11 = load i32, ptr %10, align 8, !tbaa !3
  %12 = icmp eq i32 %11, 0
  br i1 %12, label %13, label %14

13:                                               ; preds = %9
  tail call void (ptr, i32, i32, ptr, ptr, ptr, ...) @arkProcessError(ptr noundef nonnull %0, i32 noundef -23, i32 noundef 503, ptr noundef nonnull @__func__.ARKodeResVtolerance, ptr noundef nonnull @.str, ptr noundef nonnull @.str.2)
  br label %69

14:                                               ; preds = %9
  %15 = icmp eq ptr %1, null
  br i1 %15, label %16, label %17

16:                                               ; preds = %14
  tail call void (ptr, i32, i32, ptr, ptr, ptr, ...) @arkProcessError(ptr noundef nonnull %0, i32 noundef -23, i32 noundef 509, ptr noundef nonnull @__func__.ARKodeResVtolerance, ptr noundef nonnull @.str, ptr noundef nonnull @.str.14)
  br label %69

17:                                               ; preds = %14
  %18 = getelementptr inbounds nuw i8, ptr %1, i64 8
  %19 = load ptr, ptr %18, align 8, !tbaa !26
  %20 = getelementptr inbounds nuw i8, ptr %19, i64 184
  %21 = load ptr, ptr %20, align 8, !tbaa !92
  %22 = icmp eq ptr %21, null
  br i1 %22, label %23, label %24

23:                                               ; preds = %17
  tail call void (ptr, i32, i32, ptr, ptr, ptr, ...) @arkProcessError(ptr noundef nonnull %0, i32 noundef -22, i32 noundef 515, ptr noundef nonnull @__func__.ARKodeResVtolerance, ptr noundef nonnull @.str, ptr noundef nonnull @.str.10)
  br label %69

24:                                               ; preds = %17
  %25 = tail call double @N_VMin(ptr noundef nonnull %1) #16
  %26 = fcmp olt double %25, 0.000000e+00
  br i1 %26, label %27, label %28

27:                                               ; preds = %24
  tail call void (ptr, i32, i32, ptr, ptr, ptr, ...) @arkProcessError(ptr noundef nonnull %0, i32 noundef -22, i32 noundef 522, ptr noundef nonnull @__func__.ARKodeResVtolerance, ptr noundef nonnull @.str, ptr noundef nonnull @.str.13)
  br label %69

28:                                               ; preds = %24
  %29 = fcmp oeq double %25, 0.000000e+00
  %30 = zext i1 %29 to i32
  %31 = getelementptr inbounds nuw i8, ptr %0, i64 80
  store i32 %30, ptr %31, align 8, !tbaa !97
  %32 = getelementptr inbounds nuw i8, ptr %0, i64 576
  %33 = load i32, ptr %32, align 8, !tbaa !55
  %.not38 = icmp eq i32 %33, 0
  br i1 %.not38, label %52, label %34

34:                                               ; preds = %28
  %35 = getelementptr inbounds nuw i8, ptr %0, i64 568
  store ptr null, ptr %35, align 8, !tbaa !57
  %36 = getelementptr inbounds nuw i8, ptr %0, i64 560
  %37 = load ptr, ptr %36, align 8, !tbaa !56
  %38 = tail call ptr @N_VClone(ptr noundef %37) #16
  store ptr %38, ptr %35, align 8, !tbaa !52
  %39 = icmp eq ptr %38, null
  br i1 %39, label %40, label %41

40:                                               ; preds = %34
  tail call void @arkFreeVectors(ptr noundef nonnull %0)
  tail call void (ptr, i32, i32, ptr, ptr, ptr, ...) @arkProcessError(ptr noundef nonnull %0, i32 noundef -20, i32 noundef 536, ptr noundef nonnull @__func__.ARKodeResVtolerance, ptr noundef nonnull @.str, ptr noundef nonnull @.str.11)
  br label %69

41:                                               ; preds = %34
  %42 = getelementptr inbounds nuw i8, ptr %0, i64 856
  %43 = load i64, ptr %42, align 8, !tbaa !31
  %44 = getelementptr inbounds nuw i8, ptr %0, i64 872
  %45 = load i64, ptr %44, align 8, !tbaa !53
  %46 = add nsw i64 %45, %43
  store i64 %46, ptr %44, align 8, !tbaa !53
  %47 = getelementptr inbounds nuw i8, ptr %0, i64 864
  %48 = load i64, ptr %47, align 8, !tbaa !32
  %49 = getelementptr inbounds nuw i8, ptr %0, i64 880
  %50 = load i64, ptr %49, align 8, !tbaa !54
  %51 = add nsw i64 %50, %48
  store i64 %51, ptr %49, align 8, !tbaa !54
  store i32 0, ptr %32, align 8, !tbaa !55
  br label %52

52:                                               ; preds = %41, %28
  %53 = getelementptr inbounds nuw i8, ptr %0, i64 956
  %54 = load i32, ptr %53, align 4, !tbaa !104
  %.not40 = icmp eq i32 %54, 0
  br i1 %.not40, label %55, label %62

55:                                               ; preds = %52
  %56 = getelementptr inbounds nuw i8, ptr %0, i64 568
  %57 = load ptr, ptr %56, align 8, !tbaa !57
  %58 = getelementptr inbounds nuw i8, ptr %0, i64 72
  %59 = tail call i32 @arkAllocVec(ptr noundef nonnull %0, ptr noundef %57, ptr noundef nonnull %58)
  %.not41 = icmp eq i32 %59, 0
  br i1 %.not41, label %60, label %61

60:                                               ; preds = %55
  tail call void (ptr, i32, i32, ptr, ptr, ptr, ...) @arkProcessError(ptr noundef nonnull %0, i32 noundef -20, i32 noundef 548, ptr noundef nonnull @__func__.ARKodeResVtolerance, ptr noundef nonnull @.str, ptr noundef nonnull @.str.11)
  br label %69

61:                                               ; preds = %55
  store i32 1, ptr %53, align 4, !tbaa !104
  br label %62

62:                                               ; preds = %61, %52
  %63 = getelementptr inbounds nuw i8, ptr %0, i64 72
  %64 = load ptr, ptr %63, align 8, !tbaa !103
  tail call void @N_VScale(double noundef 1.000000e+00, ptr noundef nonnull %1, ptr noundef %64) #16
  %65 = getelementptr inbounds nuw i8, ptr %0, i64 28
  store i32 1, ptr %65, align 4, !tbaa !99
  %66 = getelementptr inbounds nuw i8, ptr %0, i64 84
  store i32 0, ptr %66, align 4, !tbaa !88
  %67 = getelementptr inbounds nuw i8, ptr %0, i64 112
  store ptr @arkRwtSet, ptr %67, align 8, !tbaa !100
  %68 = getelementptr inbounds nuw i8, ptr %0, i64 120
  store ptr %0, ptr %68, align 8, !tbaa !101
  br label %69

69:                                               ; preds = %62, %60, %40, %27, %23, %16, %13, %8, %4
  %.0 = phi i32 [ -21, %4 ], [ -23, %13 ], [ -23, %16 ], [ -22, %23 ], [ -22, %27 ], [ 0, %62 ], [ -22, %60 ], [ -22, %40 ], [ -48, %8 ]
  ret i32 %.0
}